Certificate:
    Data:
        Version: 3 (0x2)
        Serial Number: 1 (0x1)
    Signature Algorithm: sha256WithRSAEncryption
        Issuer: DC=DE, DC=haw-hamburg, O=haw-hamburg, CN=CA
        Validity
            Not Before: May 24 08:34:38 2016 GMT
            Not After : Jun 21 08:34:38 2016 GMT
        Subject: DC=DE, DC=haw-hamburg, O=haw-hamburg, CN=CA
        Subject Public Key Info:
            Public Key Algorithm: rsaEncryption
                Public-Key: (2048 bit)
                Modulus:
                    00:c4:42:d9:58:1e:71:7d:6c:04:5e:58:0c:aa:34:
                    9d:3e:5d:8a:6c:8b:f2:86:11:2e:4d:53:bf:f6:6a:
                    5c:47:77:3e:74:2e:a2:02:b4:9c:25:c4:a3:14:d5:
                    22:9b:35:0c:97:a2:d6:ea:7e:cf:75:fd:68:7b:5f:
                    a3:53:f4:b2:31:b8:5e:26:e7:f5:81:58:61:99:04:
                    70:83:4e:27:89:7e:a6:3a:49:91:04:18:60:b4:52:
                    d7:04:f7:94:6f:b6:1a:e1:f2:0e:ec:f6:c8:d8:a2:
                    6f:d0:fc:ad:86:7d:47:ad:fc:2e:66:ca:a1:fd:d1:
                    f3:27:72:13:b1:e7:b2:8b:73:cb:0f:88:48:0a:07:
                    b7:f3:18:c5:e4:49:42:72:7d:65:c8:98:73:03:a4:
                    06:23:24:0a:19:f5:e0:bb:86:61:fc:aa:c0:d2:72:
                    67:0f:7c:12:71:8a:5b:60:11:81:0a:79:47:3b:02:
                    ea:c7:b4:02:e6:fb:8a:c0:57:34:da:73:9d:bf:5a:
                    58:98:36:1e:51:03:ef:8c:08:98:32:00:ca:49:09:
                    dc:29:67:59:4a:4c:4b:54:fb:92:9d:9a:f7:54:f8:
                    1f:07:11:2e:02:0b:e1:eb:47:50:42:25:05:5f:08:
                    a9:82:81:bd:f1:4b:46:64:48:2f:83:55:26:f5:ba:
                    75:03
                Exponent: 65537 (0x10001)
        X509v3 extensions:
            X509v3 Key Usage: critical
                Certificate Sign, CRL Sign
            X509v3 Basic Constraints: critical
                CA:TRUE
            X509v3 Subject Key Identifier: 
                F1:9B:F6:AC:11:6F:31:36:4D:3A:BC:19:DE:70:E0:CB:BE:93:D4:AD
            X509v3 Authority Key Identifier: 
                keyid:F1:9B:F6:AC:11:6F:31:36:4D:3A:BC:19:DE:70:E0:CB:BE:93:D4:AD

    Signature Algorithm: sha256WithRSAEncryption
         95:91:30:20:c1:08:35:c4:b3:7f:5e:84:0d:e9:35:04:2a:4e:
         bd:22:e5:5d:c5:33:df:6c:ad:3b:e0:28:9e:f6:98:59:5f:8a:
         59:09:4e:d2:e5:7f:ce:5f:cf:b7:2e:44:ed:53:d8:6c:43:fc:
         f2:71:d6:e0:07:ec:ef:89:37:f5:c2:4d:35:f1:a8:d4:26:72:
         79:d2:be:93:b1:dd:f8:53:f2:9a:af:1b:5a:45:07:e5:df:f0:
         8e:9f:08:b5:04:0c:4a:67:eb:db:43:79:2b:54:3e:55:4b:57:
         10:9d:c7:ac:b1:c3:20:23:6a:44:0b:f0:64:c2:e2:06:5b:56:
         ba:2b:10:d4:a1:80:76:4a:97:08:6f:62:70:c8:77:03:dd:63:
         42:8a:37:4c:2c:ef:15:db:ca:1c:1e:03:e6:69:82:ed:f7:10:
         a6:0d:2f:51:84:ae:6b:eb:29:a6:66:2f:89:78:15:7c:15:4d:
         c7:13:ac:d3:2d:4a:a0:0a:9b:7d:d4:91:80:7d:74:fb:5b:86:
         7f:5d:d4:63:d7:93:8a:3b:df:83:20:64:ef:bf:63:91:6b:83:
         00:16:9c:82:7e:a5:c6:66:70:0e:e6:e5:3b:9f:f3:93:02:ed:
         82:05:3b:97:af:50:5b:ff:52:9c:e8:4f:b6:26:1c:b0:95:ae:
         8f:3f:26:20
-----BEGIN CERTIFICATE-----
MIIDhjCCAm6gAwIBAgIBATANBgkqhkiG9w0BAQsFADBUMRIwEAYKCZImiZPyLGQB
GRYCREUxGzAZBgoJkiaJk/IsZAEZFgtoYXctaGFtYnVyZzEUMBIGA1UECgwLaGF3
LWhhbWJ1cmcxCzAJBgNVBAMMAkNBMB4XDTE2MDUyNDA4MzQzOFoXDTE2MDYyMTA4
MzQzOFowVDESMBAGCgmSJomT8ixkARkWAkRFMRswGQYKCZImiZPyLGQBGRYLaGF3
LWhhbWJ1cmcxFDASBgNVBAoMC2hhdy1oYW1idXJnMQswCQYDVQQDDAJDQTCCASIw
DQYJKoZIhvcNAQEBBQADggEPADCCAQoCggEBAMRC2VgecX1sBF5YDKo0nT5dimyL
8oYRLk1Tv/ZqXEd3PnQuogK0nCXEoxTVIps1DJei1up+z3X9aHtfo1P0sjG4Xibn
9YFYYZkEcINOJ4l+pjpJkQQYYLRS1wT3lG+2GuHyDuz2yNiib9D8rYZ9R638LmbK
of3R8ydyE7Hnsotzyw+ISAoHt/MYxeRJQnJ9ZciYcwOkBiMkChn14LuGYfyqwNJy
Zw98EnGKW2ARgQp5RzsC6se0Aub7isBXNNpznb9aWJg2HlED74wImDIAykkJ3Cln
WUpMS1T7kp2a91T4HwcRLgIL4etHUEIlBV8IqYKBvfFLRmRIL4NVJvW6dQMCAwEA
AaNjMGEwDgYDVR0PAQH/BAQDAgEGMA8GA1UdEwEB/wQFMAMBAf8wHQYDVR0OBBYE
FPGb9qwRbzE2TTq8Gd5w4Mu+k9StMB8GA1UdIwQYMBaAFPGb9qwRbzE2TTq8Gd5w
4Mu+k9StMA0GCSqGSIb3DQEBCwUAA4IBAQCVkTAgwQg1xLN/XoQN6TUEKk69IuVd
xTPfbK074Cie9phZX4pZCU7S5X/OX8+3LkTtU9hsQ/zycdbgB+zviTf1wk018ajU
JnJ50r6Tsd34U/KarxtaRQfl3/COnwi1BAxKZ+vbQ3krVD5VS1cQncesscMgI2pE
C/BkwuIGW1a6KxDUoYB2SpcIb2JwyHcD3WNCijdMLO8V28ocHgPmaYLt9xCmDS9R
hK5r6ymmZi+JeBV8FU3HE6zTLUqgCpt91JGAfXT7W4Z/XdRj15OKO9+DIGTvv2OR
a4MAFpyCfqXGZnAO5uU7n/OTAu2CBTuXr1Bb/1Kc6E+2Jhywla6PPyYg
-----END CERTIFICATE-----
